S'abc.txt'
p0
.I18
.(dp0
S'f1'
p1
I4
s.(dp0
S'f1'
p1
I4
s.(lp0
S'f1'
p1
ag1
ag1
ag1
aI-1
aI-1
aI-1
aI-1
aI-1
aI-1
aI-1
aI-1
aI-1
aI-1
aI-1
aI-1
aI-1
aI-1
aI-1
aI-1
aI-1
aI-1
a.(lp0
I-1
aI-1
aI-1
aI-1
aI-1
aI-1
aI-1
aI-1
aI-1
aI-1
a.