S'abc.txt'
p0
.I26
.(dp0
S'f1'
p1
(dp2
S"f1'"
p3
(dp4
S"f1''"
p5
(dp6
sS'f'
p7
(dp8
sssS'f2'
p9
(dp10
s.(dp0
.(lp0
I-1
aI-1
aI-1
aI-1
aI-1
aI-1
aI-1
aI-1
aI-1
aI-1
aI-1
aI-1
aI-1
aI-1
aI-1
aI-1
aI-1
aI-1
aI-1
aI-1
aI-1
aI-1
aI-1
aI-1
aI-1
aI-1
a.(lp0
I-1
aI-1
aI-1
aI-1
aI-1
aI-1
aI-1
aI-1
aI-1
aI-1
a.