S'abc.txt'
p0
.L0L
.(dp0
S'x'
p1
I3
sS'd1'
p2
(dp3
s.(dp0
S'y'
p1
I2
sS'x'
p2
I3
s.(lp0
S'x'
p1
ag1
ag1
aS'y'
p2
ag2
a.(lp0
(dp1
S'file_name'
p2
S'y'
p3
sS'length'
p4
I2
sS'pos'
p5
I2
sS'mode'
p6
S'r'
p7
saI-1
aI-1
aI-1
aI-1
aI-1
aI-1
aI-1
aI-1
aI-1
a.