S'abc.txt'
p0
.I36
.(dp0
S'test1'
p1
I2
sS'f1'
p2
(dp3
S'test'
p4
(dp5
sS"f1'"
p6
(dp7
S'g'
p8
(dp9
sss.(dp0
S'test1'
p1
I0
s.(lp0
S'test1'
p1
ag1
aI-1
aI-1
aI-1
aI-1
aI-1
aI-1
aI-1
aI-1
aI-1
aI-1
aI-1
aI-1
aI-1
aI-1
aI-1
aI-1
aI-1
aI-1
aI-1
aI-1
aI-1
aI-1
aI-1
aI-1
aI-1
aI-1
aI-1
aI-1
aI-1
aI-1
aI-1
aI-1
aI-1
aI-1
aI-1
aI-1
a.(lp0
I-1
aI-1
aI-1
aI-1
aI-1
aI-1
aI-1
aI-1
aI-1
aI-1
a.