S'abc.txt'
p0
.I24
.(dp0
S'f1'
p1
(dp2
S"f1'"
p3
(dp4
S'test'
p5
I2
sS"f1''"
p6
(dp7
sS'f'
p8
(dp9
sssS'f2'
p10
(dp11
s.(dp0
S'test'
p1
I0
s.(lp0
S'test'
p1
ag1
aI-1
aI-1
aI-1
aI-1
aI-1
aI-1
aI-1
aI-1
aI-1
aI-1
aI-1
aI-1
aI-1
aI-1
aI-1
aI-1
aI-1
aI-1
aI-1
aI-1
aI-1
aI-1
aI-1
aI-1
a.(lp0
I-1
aI-1
aI-1
aI-1
aI-1
aI-1
aI-1
aI-1
aI-1
aI-1
a.