S'abc.txt'
p0
.I1
.(dp0
S'f1'
p1
I2
sS'd1'
p2
(dp3
S'f2'
p4
I2
sS'd2'
p5
(dp6
ss.(dp0
S'f1'
p1
I2
sS'f2'
p2
I0
s.(lp0
S'f1'
p1
ag1
aS'f2'
p2
ag2
aI-1
a.(lp0
I-1
aI-1
aI-1
aI-1
aI-1
aI-1
aI-1
aI-1
aI-1
aI-1
a.